; Function Attrs: nounwind uwtable
define dso_local noundef i64 @text_concat_ws(ptr noundef captures(none) %0) local_unnamed_addr #0 {
  %2 = getelementptr inbounds nuw i8, ptr %0, i64 40
  %3 = load i8, ptr %2, align 8, !range !9, !noundef !10
  %4 = trunc nuw i8 %3 to i1
  br i1 %4, label %5, label %7

5:                                                ; preds = %1
  %6 = getelementptr inbounds nuw i8, ptr %0, i64 28
  store i8 1, ptr %6, align 4
  br label %51

7:                                                ; preds = %1
  %8 = getelementptr inbounds nuw i8, ptr %0, i64 32
  %9 = load i64, ptr %8, align 8
  %10 = inttoptr i64 %9 to ptr
  %11 = tail call ptr @pg_detoast_datum_packed(ptr noundef %10) #19
  %12 = tail call ptr @pg_detoast_datum_packed(ptr noundef %11) #19
  %13 = load i8, ptr %12, align 1
  %14 = zext i8 %13 to i32
  %15 = icmp eq i8 %13, 1
  br i1 %15, label %16, label %25

16:                                               ; preds = %7
  %17 = getelementptr inbounds nuw i8, ptr %12, i64 1
  %18 = load i8, ptr %17, align 1
  %19 = icmp eq i8 %18, 1
  %20 = and i8 %18, -2
  %21 = icmp eq i8 %20, 2
  %or.cond.i = or i1 %19, %21
  %22 = icmp eq i8 %18, 18
  %23 = select i1 %22, i32 16, i32 0
  %24 = select i1 %or.cond.i, i32 8, i32 %23
  br label %34

25:                                               ; preds = %7
  %26 = and i32 %14, 1
  %.not.i = icmp eq i32 %26, 0
  br i1 %.not.i, label %30, label %27

27:                                               ; preds = %25
  %28 = lshr i32 %14, 1
  %29 = add nsw i32 %28, -1
  br label %34

30:                                               ; preds = %25
  %31 = load i32, ptr %12, align 4
  %32 = lshr i32 %31, 2
  %33 = add nsw i32 %32, -4
  br label %34

34:                                               ; preds = %30, %27, %16
  %35 = phi i32 [ %24, %16 ], [ %29, %27 ], [ %33, %30 ]
  %36 = add nsw i32 %35, 1
  %37 = sext i32 %36 to i64
  %38 = tail call ptr @palloc(i64 noundef %37) #19
  %39 = load i8, ptr %12, align 1
  %40 = and i8 %39, 1
  %.not21.i = icmp eq i8 %40, 0
  %.v.i = select i1 %.not21.i, i64 4, i64 1
  %41 = getelementptr inbounds nuw i8, ptr %12, i64 %.v.i
  %42 = sext i32 %35 to i64
  tail call void @llvm.memcpy.p0.p0.i64(ptr align 1 %38, ptr nonnull align 1 %41, i64 %42, i1 false)
  %43 = getelementptr inbounds i8, ptr %38, i64 %42
  store i8 0, ptr %43, align 1
  %.not22.i = icmp eq ptr %12, %11
  br i1 %.not22.i, label %text_to_cstring.exit, label %44

44:                                               ; preds = %34
  tail call void @pfree(ptr noundef nonnull %12) #19
  br label %text_to_cstring.exit

text_to_cstring.exit:                             ; preds = %34, %44
  %45 = tail call fastcc ptr @concat_internal(ptr noundef nonnull %38, i32 noundef 1, ptr noundef nonnull %0)
  %46 = icmp eq ptr %45, null
  br i1 %46, label %47, label %49

47:                                               ; preds = %text_to_cstring.exit
  %48 = getelementptr inbounds nuw i8, ptr %0, i64 28
  store i8 1, ptr %48, align 4
  br label %51

49:                                               ; preds = %text_to_cstring.exit
  %50 = ptrtoint ptr %45 to i64
  br label %51

51:                                               ; preds = %49, %47, %5
  %.0 = phi i64 [ 0, %5 ], [ 0, %47 ], [ %50, %49 ]
  ret i64 %.0
}